; Function Attrs: mustprogress uwtable
define hidden void @_ZN11opencv_test3ocl33OCL_CannyFixture_Canny_Canny_Test8TestBodyEv(ptr noundef nonnull align 8 dereferenceable(257) %0) unnamed_addr #4 align 2 personality ptr @__gxx_personality_v0 {
  %2 = alloca %"class.cv::utils::trace::details::Region", align 8
  call void @llvm.lifetime.start.p0(i64 16, ptr nonnull %2) #31
  call void @_ZN2cv5utils5trace7details6RegionC1ERKNS3_21LocationStaticStorageE(ptr noundef nonnull align 8 dereferenceable(12) %2, ptr noundef nonnull align 8 dereferenceable(32) @_ZZN11opencv_test3ocl33OCL_CannyFixture_Canny_Canny_Test8TestBodyEvE25__cv_trace_location_fn313)
  store i8 1, ptr @_ZN11opencv_test30required_opencv_test_namespaceE, align 1, !tbaa !21
  %3 = getelementptr inbounds nuw i8, ptr %0, i64 256
  %4 = load i8, ptr %3, align 8, !tbaa !471, !range !47, !noundef !48
  %5 = trunc nuw i8 %4 to i1
  br i1 %5, label %25, label %6

6:                                                ; preds = %1
  invoke void @_ZN6cvtest9testSetUpEv()
          to label %7 unwind label %12

7:                                                ; preds = %6
  %8 = load ptr, ptr %0, align 8, !tbaa !19
  %9 = getelementptr inbounds nuw i8, ptr %8, i64 56
  %10 = load ptr, ptr %9, align 8
  invoke void %10(ptr noundef nonnull align 8 dereferenceable(257) %0)
          to label %11 unwind label %12

11:                                               ; preds = %7
  invoke void @_ZN6cvtest12testTearDownEv()
          to label %25 unwind label %12

12:                                               ; preds = %11, %7, %6
  %13 = landingpad { ptr, i32 }
          cleanup
          catch ptr @_ZTIN6cvtest7details21SkipTestExceptionBaseE
  %14 = extractvalue { ptr, i32 } %13, 1
  %15 = call i32 @llvm.eh.typeid.for.p0(ptr nonnull @_ZTIN6cvtest7details21SkipTestExceptionBaseE) #31
  %16 = icmp eq i32 %14, %15
  br i1 %16, label %17, label %34

17:                                               ; preds = %12
  %18 = extractvalue { ptr, i32 } %13, 0
  %19 = call ptr @__cxa_begin_catch(ptr %18) #31
  %20 = load ptr, ptr %19, align 8, !tbaa !19
  %21 = getelementptr inbounds nuw i8, ptr %20, i64 16
  %22 = load ptr, ptr %21, align 8
  %23 = call noundef ptr %22(ptr noundef nonnull align 8 dereferenceable(148) %19) #31
  %24 = call i32 (ptr, ...) @printf(ptr noundef nonnull dereferenceable(1) @.str.23, ptr noundef %23)
  invoke void @__cxa_end_catch()
          to label %25 unwind label %32

25:                                               ; preds = %11, %17, %1
  %26 = getelementptr inbounds nuw i8, ptr %2, i64 8
  %27 = load i32, ptr %26, align 8, !tbaa !49
  %.not.i = icmp eq i32 %27, 0
  br i1 %.not.i, label %_ZN2cv5utils5trace7details6RegionD2Ev.exit, label %28

28:                                               ; preds = %25
  invoke void @_ZN2cv5utils5trace7details6Region7destroyEv(ptr noundef nonnull align 8 dereferenceable(12) %2)
          to label %_ZN2cv5utils5trace7details6RegionD2Ev.exit unwind label %29

29:                                               ; preds = %28
  %30 = landingpad { ptr, i32 }
          catch ptr null
  %31 = extractvalue { ptr, i32 } %30, 0
  call void @__clang_call_terminate(ptr %31) #34
  unreachable

_ZN2cv5utils5trace7details6RegionD2Ev.exit:       ; preds = %25, %28
  call void @llvm.lifetime.end.p0(i64 16, ptr nonnull %2) #31
  ret void

32:                                               ; preds = %17
  %33 = landingpad { ptr, i32 }
          cleanup
  br label %34

34:                                               ; preds = %32, %12
  %.merged = phi { ptr, i32 } [ %33, %32 ], [ %13, %12 ]
  call void @_ZN2cv5utils5trace7details6RegionD2Ev(ptr noundef nonnull align 8 dereferenceable(12) %2) #31
  call void @llvm.lifetime.end.p0(i64 16, ptr nonnull %2) #31
  resume { ptr, i32 } %.merged
}